(ccopy_reg
_reconstructor
p1
(ctaskModel
MTaskNode
p2
c__builtin__
object
p3
NtRp4
(dp5
S'_TreeNode__parent'
p6
NsS'_TreeNode__attr'
p7
(dp8
S'status'
p9
S'waiting'
p10
sS'actual'
p11
I0
sS'name'
p12
S''
sS'size'
p13
(I0
I0
tp14
sS'pos'
p15
(I0
I0
tp16
sS'estimated'
p17
I0
sS'description'
p18
S''
ssS'_Observable__observers'
p19
(lp20
g4
asS'_TreeNode__children'
p21
(lp22
sb(lp23
t.